 kernel

 Timestamp is 4c251e87 (Sat Jun 26 00:24:23 2010)

 Preferred load address is 00100000

 Start         Length     Name                   Class
 0001:00000000 000013b5H .text                   CODE
 0002:00000000 00000456H .rdata                  DATA
 0003:00000000 00000004H .CRT$XCA                DATA
 0003:00000004 00000004H .CRT$XCZ                DATA
 0003:00000008 0000002cH .data                   DATA
 0003:00000038 00000888H .bss                    DATA
 0004:00000000 00000058H .rsrc$01                DATA
 0004:00000060 00000390H .rsrc$02                DATA

  Address         Publics by Value              Rva+Base       Lib:Object

 0000:00000000       ___safe_se_handler_table   00000000     <absolute>
 0000:00000000       ___safe_se_handler_count   00000000     <absolute>
 0001:00000000       ?kernel_entry@@YAXPAUmultiboot_info@@@Z 00100400 f   entry.obj
 0001:00000040       ?pmm_demo@@YAXXZ           00100440 f   main.obj
 0001:000000a0       ?eqraos_screen@@YAXXZ      001004a0 f   main.obj
 0001:000000f0       _main                      001004f0 f   main.obj
 0001:00000180       ?kputc@@YAXE@Z             00100580 f   kdisplay.obj
 0001:000001f0       ?itoa@@YAXIIPAD@Z          001005f0 f   kdisplay.obj
 0001:00000260       ?itoa_s@@YAXHIPAD@Z        00100660 f   kdisplay.obj
 0001:00000290       ?kclear@@YAXG@Z            00100690 f   kdisplay.obj
 0001:000002d0       ?kputs@@YAXPAD@Z           001006d0 f   kdisplay.obj
 0001:00000310       ?kset_color@@YAII@Z        00100710 f   kdisplay.obj
 0001:00000320       ?kgoto_xy@@YAXII@Z         00100720 f   kdisplay.obj
 0001:00000350       ?kprintf@@YAHPBDZZ         00100750 f   kdisplay.obj
 0001:00000540       ?divide_by_zero_fault@@YAXIII@Z 00100940 f   exception.obj
 0001:00000560       ?single_step_trap@@YAXIII@Z 00100960 f   exception.obj
 0001:00000580       ?nmi_trap@@YAXIII@Z        00100980 f   exception.obj
 0001:000005a0       ?breakpoint_trap@@YAXIII@Z 001009a0 f   exception.obj
 0001:000005c0       ?overflow_trap@@YAXIII@Z   001009c0 f   exception.obj
 0001:000005e0       ?bounds_check_fault@@YAXIII@Z 001009e0 f   exception.obj
 0001:00000600       ?invalid_opcode_fault@@YAXIII@Z 00100a00 f   exception.obj
 0001:00000620       ?no_device_fault@@YAXIII@Z 00100a20 f   exception.obj
 0001:00000640       ?double_fault_abort@@YAXIIII@Z 00100a40 f   exception.obj
 0001:00000660       ?invalid_tss_fault@@YAXIIII@Z 00100a60 f   exception.obj
 0001:00000680       ?no_segment_fault@@YAXIIII@Z 00100a80 f   exception.obj
 0001:000006a0       ?stack_fault@@YAXIIII@Z    00100aa0 f   exception.obj
 0001:000006c0       ?general_protection_fault@@YAXIIII@Z 00100ac0 f   exception.obj
 0001:000006e0       ?page_fault@@YAXIIII@Z     00100ae0 f   exception.obj
 0001:00000700       ?fpu_fault@@YAXIII@Z       00100b00 f   exception.obj
 0001:00000720       ?alignment_check_fault@@YAXIIII@Z 00100b20 f   exception.obj
 0001:00000740       ?machine_check_abort@@YAXIII@Z 00100b40 f   exception.obj
 0001:00000760       ?simd_fpu_fault@@YAXIII@Z  00100b60 f   exception.obj
 0001:00000780       ?execption_init@@YAXXZ     00100b80 f   exception.obj
 0001:00000870       ?kernel_panic@@YAXPBDZZ    00100c70 f   panic.obj
 0001:000008b0       ?pmm_init@@YAXII@Z         00100cb0 f   pmm.obj
 0001:000008f0       ?pmm_init_region@@YAXII@Z  00100cf0 f   pmm.obj
 0001:00000960       ?pmm_deinit_region@@YAXII@Z 00100d60 f   pmm.obj
 0001:000009c0       ?pmm_dealloc@@YAXPAX@Z     00100dc0 f   pmm.obj
 0001:00000a00       ?pmm_deallocs@@YAXPAXI@Z   00100e00 f   pmm.obj
 0001:00000a60       ?pmm_get_mem_size@@YAIXZ   00100e60 f   pmm.obj
 0001:00000a70       ?pmm_get_block_count@@YAIXZ 00100e70 f   pmm.obj
 0001:00000a80       ?pmm_get_used_block_count@@YAIXZ 00100e80 f   pmm.obj
 0001:00000a90       ?pmm_get_free_block_count@@YAIXZ 00100e90 f   pmm.obj
 0001:00000aa0       ?pmm_get_block_size@@YAIXZ 00100ea0 f   pmm.obj
 0001:00000ab0       ?pmm_enable_paging@@YAX_N@Z 00100eb0 f   pmm.obj
 0001:00000ae0       ?pmm_is_paging@@YA_NXZ     00100ee0 f   pmm.obj
 0001:00000af0       ?pmm_load_PDBR@@YAXI@Z     00100ef0 f   pmm.obj
 0001:00000b00       ?pmm_get_PDBR@@YAIXZ       00100f00 f   pmm.obj
 0001:00000b10       ?mmap_find_first@@YAHXZ    00100f10 f   pmm.obj
 0001:00000b70       ?mmap_find_squence@@YAHI@Z 00100f70 f   pmm.obj
 0001:00000c90       ?pmm_alloc@@YAPAXXZ        00101090 f   pmm.obj
 0001:00000cf0       ?pmm_allocs@@YAPAXI@Z      001010f0 f   pmm.obj
 0001:00000d70       ?mem_info_init_region@@YAXXZ 00101170 f   mem_info.obj
 0001:00000dd0       ?mem_info_dump_region@@YAXXZ 001011d0 f   mem_info.obj
 0001:00000e50       ?mem_info_dump_size@@YAXXZ 00101250 f   mem_info.obj
 0001:00000e80       ?mem_info_blocks_stat@@YAXXZ 00101280 f   mem_info.obj
 0001:00000eb0       ?mem_info_init@@YAXPAUmultiboot_info@@@Z 001012b0 f   mem_info.obj
 0001:00000f10       ?exit@@YAXXZ               00101310 f   lib:cstd.obj
 0001:00000f50       ?init_ctor@@YAXXZ          00101350 f   lib:cstd.obj
 0001:00000f90       ?strlen@@YAIPBD@Z          00101390 f   lib:string.obj
 0001:00000fb0       ?memset@@YAPAXPAXDI@Z      001013b0 f   lib:string.obj
 0001:00000fd0       ?int_done@@YAXI@Z          001013d0 f   hal:hal.obj
 0001:00001000       ?outportb@@YAXGE@Z         00101400 f   hal:hal.obj
 0001:00001010       ?enable_irq@@YAXXZ         00101410 f   hal:hal.obj
 0001:00001020       ?disable_irq@@YAXXZ        00101420 f   hal:hal.obj
 0001:00001030       ?set_vector@@YAXIA6AXXZ@Z  00101430 f   hal:hal.obj
 0001:00001050       ?hal_init@@YAHXZ           00101450 f   hal:hal.obj
 0001:00001080       ?i386_cpu_init@@YAHXZ      00101480 f   hal:cpu.obj
 0001:000010a0       ?i386_pic_send_command@@YAXEE@Z 001014a0 f   hal:pic.obj
 0001:000010d0       ?i386_pic_init@@YAXEE@Z    001014d0 f   hal:pic.obj
 0001:00001170       ?i386_idt_install_ir@@YAHIGGP6AXXZ@Z 00101570 f   hal:idt.obj
 0001:000011c0       ?i386_idt_init@@YAHG@Z     001015c0 f   hal:idt.obj
 0001:00001250       ?i386_pit_start_counter@@YAXIEE@Z 00101650 f   hal:pit.obj
 0001:000012b0       ?i386_pit_irq@@YAXXZ       001016b0 f   hal:pit.obj
 0001:000012d0       ?i386_pit_init@@YAXXZ      001016d0 f   hal:pit.obj
 0001:000012f0       ?i386_gdt_init@@YAHXZ      001016f0 f   hal:gdt.obj
 0002:0000041c       ??_C@_0DK@GOCDNPMH@?$CK?$CK?$CK?$CK?5?$FLI386?5HAL?$FN?5i386_default_han@ 00101c1c     hal:idt.obj
 0003:00000000       ?__xc_a@@3PAP6AXXZA        00101e00     lib:cstd.obj
 0003:00000004       ?__xc_z@@3PAP6AXXZA        00101e04     lib:cstd.obj
 0003:00000008       ?bchars@@3PADA             00101e08     kdisplay.obj
 0003:00000018       ?mem_types@@3PAPADA        00101e18     mem_info.obj
 0003:00000028       ?region_ptr@@3PAUmem_region@@A 00101e28     mem_info.obj
 0003:00000030       __fltused                  00101e30     lib:cstd.obj
 0003:00000038       ?tbuf@@3PADA               00101e38     kdisplay.obj
 0003:0000007c       ?boot_info@@3PAUmultiboot_info@@A 00101e7c     mem_info.obj
 0003:00000080       ?kernel_size@@3IA          00101e80     mem_info.obj
 0003:00000084       ?mem_size@@3IA             00101e84     mem_info.obj

 entry point at        0000:00000000

 Static symbols

 0001:00001140       ?i386_default_handler@@YAXXZ 00101540 f   hal:idt.obj
