; Listing generated by Microsoft (R) Optimizing Compiler Version 14.00.50727.42 

	TITLE	c:\Documents and Settings\SudaNix\Desktop\docs\research\examples\ch4\ex4-1\core\kernel\main.cpp
	.686P
	.XMM
	include listing.inc
	.model	flat

INCLUDELIB LIBCMT
INCLUDELIB OLDNAMES

PUBLIC	??_C@_0DM@GKCKOMBP@?6?6?5?5?5?5?5?5?5?5?5?5?5?5?5?5?5eqraOS?5v0?41?5Cop@ ; `string'
PUBLIC	??_C@_04LEAFLDMF@?$FL?$CFx?$FN?$AA@		; `string'
PUBLIC	??_C@_0BI@HLMECHOG@?6x?5as?5hex?4?4?4?4?4?4?4?4?4?4?4?4?4?5?$AA@ ; `string'
PUBLIC	??_C@_04KBDJOJNB@?$FL?$CFd?$FN?$AA@		; `string'
PUBLIC	??_C@_0BI@IGDOFGNF@?6x?5as?5int?4?4?4?4?4?4?4?4?4?4?4?4?4?5?$AA@ ; `string'
PUBLIC	??_C@_0P@FOJAHDAD@?6?6?6int?5x?5?$DN?512?5?$AA@	; `string'
PUBLIC	??_C@_0DC@FFDFODEM@?5?5?5?5?5?5?5?5?5?5?5?5?5?5?5?5?5?5?5?5?1_?1?5?5?5?5?5?5?5?5?5@ ; `string'
PUBLIC	??_C@_0DC@CPOKAAAI@?5?5?5?5?5?5?5?5?5?5?5?5?5?5?5?2__?1?2_?0?5?1_?1?5?5?2_?0_@ ; `string'
PUBLIC	??_C@_0DC@OKJEODDC@?5?5?5?5?5?5?5?5?5?5?5?5?5?5?5?1?5?9_?$CJ?5_?5?$GA?1?5__?1?5_?5@ ; `string'
PUBLIC	??_C@_0DC@LPCGAJPH@?5?5?5?5?5?5?5?5?5?5?5?5?5?5?5?5___?5___?5________@ ; `string'
PUBLIC	??_C@_0BO@OIGKDFNC@?5?5?5?5eqraOS?5Kernel?5executed?4?6?6?$AA@ ; `string'
PUBLIC	_main
EXTRN	?kprintf@@YAHPBDZZ:PROC				; kprintf
EXTRN	?ksetcolor@@YAII@Z:PROC				; ksetcolor
EXTRN	?kgoto_xy@@YAXII@Z:PROC				; kgoto_xy
EXTRN	?kclear@@YAXG@Z:PROC				; kclear
;	COMDAT ??_C@_0DM@GKCKOMBP@?6?6?5?5?5?5?5?5?5?5?5?5?5?5?5?5?5eqraOS?5v0?41?5Cop@
; File c:\documents and settings\sudanix\desktop\docs\research\examples\ch4\ex4-1\core\kernel\main.cpp
CONST	SEGMENT
??_C@_0DM@GKCKOMBP@?6?6?5?5?5?5?5?5?5?5?5?5?5?5?5?5?5eqraOS?5v0?41?5Cop@ DB 0aH
	DB	0aH, '               eqraOS v0.1 Copyright (C) 2010 Ahmad Essa'
	DB	'm', 00H					; `string'
CONST	ENDS
;	COMDAT ??_C@_04LEAFLDMF@?$FL?$CFx?$FN?$AA@
CONST	SEGMENT
??_C@_04LEAFLDMF@?$FL?$CFx?$FN?$AA@ DB '[%x]', 00H	; `string'
CONST	ENDS
;	COMDAT ??_C@_0BI@HLMECHOG@?6x?5as?5hex?4?4?4?4?4?4?4?4?4?4?4?4?4?5?$AA@
CONST	SEGMENT
??_C@_0BI@HLMECHOG@?6x?5as?5hex?4?4?4?4?4?4?4?4?4?4?4?4?4?5?$AA@ DB 0aH, 'x'
	DB	' as hex............. ', 00H			; `string'
CONST	ENDS
;	COMDAT ??_C@_04KBDJOJNB@?$FL?$CFd?$FN?$AA@
CONST	SEGMENT
??_C@_04KBDJOJNB@?$FL?$CFd?$FN?$AA@ DB '[%d]', 00H	; `string'
CONST	ENDS
;	COMDAT ??_C@_0BI@IGDOFGNF@?6x?5as?5int?4?4?4?4?4?4?4?4?4?4?4?4?4?5?$AA@
CONST	SEGMENT
??_C@_0BI@IGDOFGNF@?6x?5as?5int?4?4?4?4?4?4?4?4?4?4?4?4?4?5?$AA@ DB 0aH, 'x'
	DB	' as int............. ', 00H			; `string'
CONST	ENDS
;	COMDAT ??_C@_0P@FOJAHDAD@?6?6?6int?5x?5?$DN?512?5?$AA@
CONST	SEGMENT
??_C@_0P@FOJAHDAD@?6?6?6int?5x?5?$DN?512?5?$AA@ DB 0aH, 0aH, 0aH, 'int x '
	DB	'= 12 ', 00H					; `string'
CONST	ENDS
;	COMDAT ??_C@_0DC@FFDFODEM@?5?5?5?5?5?5?5?5?5?5?5?5?5?5?5?5?5?5?5?5?1_?1?5?5?5?5?5?5?5?5?5@
CONST	SEGMENT
??_C@_0DC@FFDFODEM@?5?5?5?5?5?5?5?5?5?5?5?5?5?5?5?5?5?5?5?5?1_?1?5?5?5?5?5?5?5?5?5@ DB ' '
	DB	'                   /_/                         ', 0aH, 00H ; `string'
CONST	ENDS
;	COMDAT ??_C@_0DC@CPOKAAAI@?5?5?5?5?5?5?5?5?5?5?5?5?5?5?5?2__?1?2_?0?5?1_?1?5?5?2_?0_@
CONST	SEGMENT
??_C@_0DC@CPOKAAAI@?5?5?5?5?5?5?5?5?5?5?5?5?5?5?5?2__?1?2_?0?5?1_?1?5?5?2_?0_@ DB ' '
	DB	'              \__/\_, /_/  \_,_/  \____//___/  ', 0aH, 00H ; `string'
CONST	ENDS
;	COMDAT ??_C@_0DC@OKJEODDC@?5?5?5?5?5?5?5?5?5?5?5?5?5?5?5?1?5?9_?$CJ?5_?5?$GA?1?5__?1?5_?5@
CONST	SEGMENT
??_C@_0DC@OKJEODDC@?5?5?5?5?5?5?5?5?5?5?5?5?5?5?5?1?5?9_?$CJ?5_?5?$GA?1?5__?1?5_?5@ DB ' '
	DB	'              / -_) _ `/ __/ _ `/ / /_/ /_\ \  ', 0aH, 00H ; `string'
CONST	ENDS
;	COMDAT ??_C@_0DC@LPCGAJPH@?5?5?5?5?5?5?5?5?5?5?5?5?5?5?5?5___?5___?5________@
CONST	SEGMENT
??_C@_0DC@LPCGAJPH@?5?5?5?5?5?5?5?5?5?5?5?5?5?5?5?5___?5___?5________@ DB ' '
	DB	'               ___ ___ ________ _  / __ \ / __/', 0aH, 00H ; `string'
CONST	ENDS
;	COMDAT ??_C@_0BO@OIGKDFNC@?5?5?5?5eqraOS?5Kernel?5executed?4?6?6?$AA@
CONST	SEGMENT
??_C@_0BO@OIGKDFNC@?5?5?5?5eqraOS?5Kernel?5executed?4?6?6?$AA@ DB '    eq'
	DB	'raOS Kernel executed.', 0aH, 0aH, 00H	; `string'
; Function compile flags: /Ogtpy
CONST	ENDS
;	COMDAT _main
_TEXT	SEGMENT
_main	PROC						; COMDAT

; 26   : 	int x = 12;
; 27   : 
; 28   : 	kclear(31);			// white on blue.

	push	31					; 0000001fH
	call	?kclear@@YAXG@Z				; kclear

; 29   : 
; 30   : 	kgoto_xy(4,4);

	push	4
	push	4
	call	?kgoto_xy@@YAXII@Z			; kgoto_xy

; 31   : 
; 32   : 	ksetcolor(0x17);

	push	23					; 00000017H
	call	?ksetcolor@@YAII@Z			; ksetcolor

; 33   : 
; 34   : 	kprintf("    eqraOS Kernel executed.\n\n");

	push	OFFSET ??_C@_0BO@OIGKDFNC@?5?5?5?5eqraOS?5Kernel?5executed?4?6?6?$AA@
	call	?kprintf@@YAHPBDZZ			; kprintf

; 35   : 
; 36   : 	kprintf("                ___ ___ ________ _  / __ \\ / __/\n");

	push	OFFSET ??_C@_0DC@LPCGAJPH@?5?5?5?5?5?5?5?5?5?5?5?5?5?5?5?5___?5___?5________@
	call	?kprintf@@YAHPBDZZ			; kprintf

; 37   : 	kprintf("               / -_) _ `/ __/ _ `/ / /_/ /_\\ \\  \n");

	push	OFFSET ??_C@_0DC@OKJEODDC@?5?5?5?5?5?5?5?5?5?5?5?5?5?5?5?1?5?9_?$CJ?5_?5?$GA?1?5__?1?5_?5@
	call	?kprintf@@YAHPBDZZ			; kprintf

; 38   : 	kprintf("               \\__/\\_, /_/  \\_,_/  \\____//___/  \n");

	push	OFFSET ??_C@_0DC@CPOKAAAI@?5?5?5?5?5?5?5?5?5?5?5?5?5?5?5?2__?1?2_?0?5?1_?1?5?5?2_?0_@
	call	?kprintf@@YAHPBDZZ			; kprintf

; 39   : 	kprintf("                    /_/                         \n");

	push	OFFSET ??_C@_0DC@FFDFODEM@?5?5?5?5?5?5?5?5?5?5?5?5?5?5?5?5?5?5?5?5?1_?1?5?5?5?5?5?5?5?5?5@
	call	?kprintf@@YAHPBDZZ			; kprintf

; 40   : 	
; 41   : 
; 42   : 	kprintf("\n\n\nint x = 12 ");

	push	OFFSET ??_C@_0P@FOJAHDAD@?6?6?6int?5x?5?$DN?512?5?$AA@
	call	?kprintf@@YAHPBDZZ			; kprintf

; 43   : 	kprintf("\nx as int............. ");

	push	OFFSET ??_C@_0BI@IGDOFGNF@?6x?5as?5int?4?4?4?4?4?4?4?4?4?4?4?4?4?5?$AA@
	call	?kprintf@@YAHPBDZZ			; kprintf

; 44   : 	kprintf("[%d]",x);

	push	12					; 0000000cH
	push	OFFSET ??_C@_04KBDJOJNB@?$FL?$CFd?$FN?$AA@
	call	?kprintf@@YAHPBDZZ			; kprintf

; 45   : 	kprintf("\nx as hex............. ");

	push	OFFSET ??_C@_0BI@HLMECHOG@?6x?5as?5hex?4?4?4?4?4?4?4?4?4?4?4?4?4?5?$AA@
	call	?kprintf@@YAHPBDZZ			; kprintf

; 46   : 	kprintf("[%x]",x);

	push	12					; 0000000cH
	push	OFFSET ??_C@_04LEAFLDMF@?$FL?$CFx?$FN?$AA@
	call	?kprintf@@YAHPBDZZ			; kprintf
	add	esp, 64					; 00000040H

; 47   : 
; 48   : 	kprintf("\n\n               eqraOS v0.1 Copyright (C) 2010 Ahmad Essam");

	push	OFFSET ??_C@_0DM@GKCKOMBP@?6?6?5?5?5?5?5?5?5?5?5?5?5?5?5?5?5eqraOS?5v0?41?5Cop@
	call	?kprintf@@YAHPBDZZ			; kprintf
	add	esp, 4

; 49   : }

	xor	eax, eax
	ret	0
_main	ENDP
_TEXT	ENDS
END
