; Listing generated by Microsoft (R) Optimizing Compiler Version 14.00.50727.42 

	TITLE	c:\Documents and Settings\SudaNix\Desktop\docs\research\examples\ch4\irq\core\kernel\kdisplay.cpp
	.686P
	.XMM
	include listing.inc
	.model	flat

INCLUDELIB LIBCMT
INCLUDELIB OLDNAMES

PUBLIC	?tbuf@@3PADA					; tbuf
PUBLIC	?bchars@@3PADA					; bchars
_BSS	SEGMENT
?tbuf@@3PADA DB	020H DUP (?)				; tbuf
__x_pos	DD	01H DUP (?)
__y_pos	DD	01H DUP (?)
__x_start DD	01H DUP (?)
__y_start DD	01H DUP (?)
__color	DD	01H DUP (?)
_BSS	ENDS
_DATA	SEGMENT
?bchars@@3PADA DB 030H					; bchars
	DB	031H
	DB	032H
	DB	033H
	DB	034H
	DB	035H
	DB	036H
	DB	037H
	DB	038H
	DB	039H
	DB	041H
	DB	042H
	DB	043H
	DB	044H
	DB	045H
	DB	046H
_DATA	ENDS
PUBLIC	?kputc@@YAXE@Z					; kputc
; Function compile flags: /Ogtpy
; File c:\documents and settings\sudanix\desktop\docs\research\examples\ch4\irq\core\kernel\kdisplay.cpp
_TEXT	SEGMENT
_c$ = 8							; size = 1
?kputc@@YAXE@Z PROC					; kputc

; 18   : 	if (!c)

	mov	dl, BYTE PTR _c$[esp-4]
	test	dl, dl
	je	SHORT $LN5@kputc

; 19   : 		return;
; 20   : 		
; 21   : 	if (c == '\n' || c == '\r') {	/* start newline */

	cmp	dl, 10					; 0000000aH
	je	SHORT $LN2@kputc
	cmp	dl, 13					; 0000000dH
	je	SHORT $LN2@kputc

; 24   : 		return;
; 25   : 	}
; 26   : 	
; 27   : 	if ( _x_pos > 79 ) {

	mov	ecx, DWORD PTR __x_pos
	cmp	ecx, 79					; 0000004fH
	jbe	SHORT $LN1@kputc

; 28   : 		_y_pos += 2;
; 29   : 		_x_pos = _x_start;

	mov	eax, DWORD PTR __x_start
	add	DWORD PTR __y_pos, 2
	mov	DWORD PTR __x_pos, eax

; 39   : }

	ret	0
$LN1@kputc:

; 30   : 		return;
; 31   : 	}
; 32   : 	
; 33   : 	/* address to print character */
; 34   : 	unsigned char* p = (unsigned char*) VIDEO_MEMORY + (_x_pos++)*2 + _y_pos*80;

	mov	eax, DWORD PTR __y_pos
	lea	eax, DWORD PTR [eax+eax*4]
	lea	eax, DWORD PTR [ecx+eax*8]
	add	ecx, 1
	lea	eax, DWORD PTR [eax+eax+753664]
	mov	DWORD PTR __x_pos, ecx

; 35   : 	
; 36   : 	/* draw the character */
; 37   : 	*p++ = c;		// character.
; 38   : 	*p = _color;	// color.

	mov	cl, BYTE PTR __color
	mov	BYTE PTR [eax], dl
	mov	BYTE PTR [eax+1], cl

; 39   : }

	ret	0
$LN2@kputc:

; 22   : 		_y_pos += 2;
; 23   : 		_x_pos = _x_start;

	mov	edx, DWORD PTR __x_start
	add	DWORD PTR __y_pos, 2
	mov	DWORD PTR __x_pos, edx
$LN5@kputc:

; 39   : }

	ret	0
?kputc@@YAXE@Z ENDP					; kputc
_TEXT	ENDS
PUBLIC	?itoa@@YAXIIPAD@Z				; itoa
; Function compile flags: /Ogtpy
_TEXT	SEGMENT
_i$ = 8							; size = 4
_base$ = 12						; size = 4
_buf$ = 16						; size = 4
?itoa@@YAXIIPAD@Z PROC					; itoa

; 47   :    int pos = 0;
; 48   :    int opos = 0;
; 49   :    int top = 0;
; 50   : 
; 51   :    if (i == 0 || base > 16) {

	mov	eax, DWORD PTR _i$[esp-4]
	xor	ecx, ecx
	test	eax, eax
	push	esi
	je	SHORT $LN6@itoa
	mov	esi, DWORD PTR _base$[esp]
	cmp	esi, 16					; 00000010H
	ja	SHORT $LN6@itoa
$LL5@itoa:

; 54   :       return;
; 55   :    }
; 56   : 
; 57   :    while (i != 0) {
; 58   :       tbuf[pos] = bchars[i % base];

	xor	edx, edx
	div	esi

; 59   :       pos++;

	add	ecx, 1
	test	eax, eax
	mov	dl, BYTE PTR ?bchars@@3PADA[edx]
	mov	BYTE PTR ?tbuf@@3PADA[ecx-1], dl
	jne	SHORT $LL5@itoa

; 60   :       i /= base;
; 61   :    }
; 62   :    top=pos--;

	mov	esi, ecx
	sub	ecx, 1

; 63   :    for (opos=0; opos<top; pos--,opos++) {

	test	esi, esi
	push	edi
	mov	edi, DWORD PTR _buf$[esp+4]
	jle	SHORT $LN1@itoa

; 60   :       i /= base;
; 61   :    }
; 62   :    top=pos--;

	lea	ecx, DWORD PTR ?tbuf@@3PADA[ecx]
	npad	1
$LL3@itoa:

; 64   :       buf[opos] = tbuf[pos];

	mov	dl, BYTE PTR [ecx]
	mov	BYTE PTR [eax+edi], dl
	add	eax, 1
	sub	ecx, 1
	cmp	eax, esi
	jl	SHORT $LL3@itoa
$LN1@itoa:

; 65   :    }
; 66   :    buf[opos] = 0;

	mov	BYTE PTR [eax+edi], 0
	pop	edi
	pop	esi

; 67   : }

	ret	0
$LN6@itoa:

; 52   :       buf[0] = '0';

	mov	eax, DWORD PTR _buf$[esp]
	mov	BYTE PTR [eax], 48			; 00000030H

; 53   :       buf[1] = '\0';

	mov	BYTE PTR [eax+1], cl
	pop	esi

; 67   : }

	ret	0
?itoa@@YAXIIPAD@Z ENDP					; itoa
_TEXT	ENDS
PUBLIC	?itoa_s@@YAXHIPAD@Z				; itoa_s
; Function compile flags: /Ogtpy
_TEXT	SEGMENT
_i$ = 8							; size = 4
_base$ = 12						; size = 4
_buf$ = 16						; size = 4
?itoa_s@@YAXHIPAD@Z PROC				; itoa_s

; 70   :    if (base > 16) return;

	mov	edx, DWORD PTR _base$[esp-4]
	cmp	edx, 16					; 00000010H
	ja	SHORT $LN3@itoa_s

; 71   :    if (i < 0) {

	mov	eax, DWORD PTR _i$[esp-4]
	test	eax, eax

; 72   :       *buf++ = '-';

	mov	ecx, DWORD PTR _buf$[esp-4]
	jge	SHORT $LN1@itoa_s
	mov	BYTE PTR [ecx], 45			; 0000002dH
	add	ecx, 1

; 73   :       i *= -1;

	neg	eax
$LN1@itoa_s:

; 74   :    }
; 75   :    itoa(i,base,buf);

	mov	DWORD PTR _buf$[esp-4], ecx
	mov	DWORD PTR _base$[esp-4], edx
	mov	DWORD PTR _i$[esp-4], eax
	jmp	?itoa@@YAXIIPAD@Z			; itoa
$LN3@itoa_s:

; 76   : }

	ret	0
?itoa_s@@YAXHIPAD@Z ENDP				; itoa_s
_TEXT	ENDS
PUBLIC	?kclear@@YAXG@Z					; kclear
; Function compile flags: /Ogtpy
_TEXT	SEGMENT
_c$ = 8							; size = 2
?kclear@@YAXG@Z PROC					; kclear

; 84   : 	unsigned char* p = (unsigned char*) VIDEO_MEMORY;
; 85   : 	
; 86   : 	for (int i=0;i<160*30;i+=2) {

	mov	dl, BYTE PTR _c$[esp-4]
	mov	eax, 753665				; 000b8001H
	mov	ecx, 2400				; 00000960H
	npad	2
$LL3@kclear:

; 87   : 		p[i] = ' ';

	mov	BYTE PTR [eax-1], 32			; 00000020H

; 88   : 		p[i+1] = c;

	mov	BYTE PTR [eax], dl
	add	eax, 2
	sub	ecx, 1
	jne	SHORT $LL3@kclear

; 89   : 	}
; 90   : 	
; 91   : 	_x_pos = _x_start;

	mov	eax, DWORD PTR __x_start

; 92   : 	_y_pos = _y_start;

	mov	ecx, DWORD PTR __y_start
	mov	DWORD PTR __x_pos, eax
	mov	DWORD PTR __y_pos, ecx

; 93   : }

	ret	0
?kclear@@YAXG@Z ENDP					; kclear
_TEXT	ENDS
PUBLIC	?kputs@@YAXPAD@Z				; kputs
EXTRN	?strlen@@YAIPBD@Z:PROC				; strlen
; Function compile flags: /Ogtpy
_TEXT	SEGMENT
_str$ = 8						; size = 4
?kputs@@YAXPAD@Z PROC					; kputs

; 97   : {

	push	edi

; 98   : 	if (!str)

	mov	edi, DWORD PTR _str$[esp]
	test	edi, edi
	je	SHORT $LN1@kputs
	push	esi

; 99   : 		return;
; 100  : 		
; 101  : 	for (size_t i=0;i<strlen(str);++i)

	push	edi
	xor	esi, esi
	call	?strlen@@YAIPBD@Z			; strlen
	add	esp, 4
	test	eax, eax
	jbe	SHORT $LN9@kputs
	npad	7
$LL3@kputs:

; 102  : 		kputc(str[i]);

	movzx	eax, BYTE PTR [esi+edi]
	push	eax
	call	?kputc@@YAXE@Z				; kputc
	push	edi
	add	esi, 1
	call	?strlen@@YAIPBD@Z			; strlen
	add	esp, 8
	cmp	esi, eax
	jb	SHORT $LL3@kputs
$LN9@kputs:
	pop	esi
$LN1@kputs:
	pop	edi

; 103  : }

	ret	0
?kputs@@YAXPAD@Z ENDP					; kputs
_TEXT	ENDS
PUBLIC	?kset_color@@YAII@Z				; kset_color
; Function compile flags: /Ogtpy
_TEXT	SEGMENT
_c$ = 8							; size = 4
?kset_color@@YAII@Z PROC				; kset_color

; 108  : 	unsigned old_color = _color;
; 109  : 	_color = c;

	mov	ecx, DWORD PTR _c$[esp-4]
	mov	eax, DWORD PTR __color
	mov	DWORD PTR __color, ecx

; 110  : 	return old_color;
; 111  : }

	ret	0
?kset_color@@YAII@Z ENDP				; kset_color
_TEXT	ENDS
PUBLIC	?kgoto_xy@@YAXII@Z				; kgoto_xy
; Function compile flags: /Ogtpy
_TEXT	SEGMENT
_x$ = 8							; size = 4
_y$ = 12						; size = 4
?kgoto_xy@@YAXII@Z PROC					; kgoto_xy

; 115  : 	_x_pos = x*2;

	mov	eax, DWORD PTR _x$[esp-4]

; 116  : 	_y_pos = y*2;

	mov	ecx, DWORD PTR _y$[esp-4]
	add	eax, eax
	add	ecx, ecx
	mov	DWORD PTR __x_pos, eax
	mov	DWORD PTR __y_pos, ecx

; 117  : 	_x_start = _x_pos;

	mov	DWORD PTR __x_start, eax

; 118  : 	_y_start = _y_pos;

	mov	DWORD PTR __y_start, ecx

; 119  : }

	ret	0
?kgoto_xy@@YAXII@Z ENDP					; kgoto_xy
_TEXT	ENDS
PUBLIC	?kprintf@@YAHPBDZZ				; kprintf
; Function compile flags: /Ogtpy
_TEXT	SEGMENT
_str$2686 = -32						; size = 32
_str$2676 = -32						; size = 32
_str$2666 = -32						; size = 32
_str$ = 8						; size = 4
?kprintf@@YAHPBDZZ PROC					; kprintf

; 122  : int kprintf(const char* str, ...) {

	sub	esp, 32					; 00000020H
	push	ebx
	push	ebp

; 123  : 
; 124  : 	if(!str)

	mov	ebp, DWORD PTR _str$[esp+36]
	xor	ebx, ebx
	cmp	ebp, ebx
	jne	SHORT $LN15@kprintf
	pop	ebp

; 125  : 		return 0;

	xor	eax, eax
	pop	ebx

; 196  : }

	add	esp, 32					; 00000020H
	ret	0
$LN15@kprintf:
	push	esi
	push	edi

; 129  : 	
; 130  : 	size_t i=0;
; 131  : 
; 132  : 	for (; i<strlen(str);i++) {

	push	ebp
	xor	edi, edi
	call	?strlen@@YAIPBD@Z			; strlen
	add	esp, 4
	test	eax, eax
	jbe	$LN12@kprintf

; 126  : 
; 127  : 	va_list		args;
; 128  : 	va_start (args, str);

	lea	esi, DWORD PTR _str$[esp+44]
$LL14@kprintf:

; 133  : 
; 134  : 		switch (str[i]) {

	movzx	eax, BYTE PTR [edi+ebp]
	cmp	al, 37					; 00000025H
	je	SHORT $LN9@kprintf

; 183  : 				}
; 184  : 
; 185  : 				break;
; 186  : 
; 187  : 			default:
; 188  : 				kputc (str[i]);

	push	eax
	call	?kputc@@YAXE@Z				; kputc
	add	esp, 4

; 189  : 				break;

	jmp	$LN13@kprintf
$LN9@kprintf:

; 135  : 
; 136  : 			case '%':
; 137  : 
; 138  : 				switch (str[i+1]) {

	movsx	eax, BYTE PTR [edi+ebp+1]
	add	eax, -88				; ffffffa8H
	cmp	eax, 32					; 00000020H
	ja	$LN2@kprintf
	movzx	eax, BYTE PTR $LN32@kprintf[eax]
	jmp	DWORD PTR $LN37@kprintf[eax*4]
$LN6@kprintf:

; 139  : 
; 140  : 					/*** characters ***/
; 141  : 					case 'c': {
; 142  : 						char c = va_arg (args, char);
; 143  : 						kputc (c);

	movzx	ecx, BYTE PTR [esi+4]
	add	esi, 4
	push	ecx
	call	?kputc@@YAXE@Z				; kputc
	add	esp, 4

; 144  : 						i++;		// go to next character
; 145  : 						break;

	jmp	$LN35@kprintf
$LN5@kprintf:

; 146  : 					}
; 147  : 
; 148  : 					/*** address of ***/
; 149  : 					case 's': {
; 150  : 						int c = (int&) va_arg (args, char);
; 151  : 						char str[32]={0};

	xor	eax, eax
	add	esi, 4
	mov	DWORD PTR _str$2666[esp+49], eax
	mov	DWORD PTR _str$2666[esp+53], eax
	mov	DWORD PTR _str$2666[esp+57], eax
	mov	DWORD PTR _str$2666[esp+61], eax
	mov	DWORD PTR _str$2666[esp+65], eax
	mov	DWORD PTR _str$2666[esp+69], eax
	mov	DWORD PTR _str$2666[esp+73], eax
	mov	WORD PTR _str$2666[esp+77], ax
	mov	BYTE PTR _str$2666[esp+79], al

; 152  : 						itoa_s (c, 16, str);

	mov	eax, DWORD PTR [esi]
	cmp	eax, ebx
	mov	BYTE PTR _str$2666[esp+48], bl
	lea	ecx, DWORD PTR _str$2666[esp+48]
	jge	SHORT $LN18@kprintf
	mov	BYTE PTR _str$2666[esp+48], 45		; 0000002dH
	lea	ecx, DWORD PTR _str$2666[esp+49]
	neg	eax
$LN18@kprintf:
	push	ecx
	push	16					; 00000010H
	push	eax
	call	?itoa@@YAXIIPAD@Z			; itoa

; 153  : 						kputs (str);

	lea	edx, DWORD PTR _str$2666[esp+60]
	push	edx

; 154  : 						i++;		// go to next character
; 155  : 						break;

	jmp	$LN36@kprintf
$LN4@kprintf:

; 156  : 					}
; 157  : 
; 158  : 					/*** integers ***/
; 159  : 					case 'd':
; 160  : 					case 'i': {
; 161  : 						int c = va_arg (args, int);
; 162  : 						char str[32]={0};

	xor	eax, eax
	add	esi, 4
	mov	DWORD PTR _str$2676[esp+49], eax
	mov	DWORD PTR _str$2676[esp+53], eax
	mov	DWORD PTR _str$2676[esp+57], eax
	mov	DWORD PTR _str$2676[esp+61], eax
	mov	DWORD PTR _str$2676[esp+65], eax
	mov	DWORD PTR _str$2676[esp+69], eax
	mov	DWORD PTR _str$2676[esp+73], eax
	mov	WORD PTR _str$2676[esp+77], ax
	mov	BYTE PTR _str$2676[esp+79], al

; 163  : 						itoa_s (c, 10, str);

	mov	eax, DWORD PTR [esi]
	cmp	eax, ebx
	mov	BYTE PTR _str$2676[esp+48], bl
	lea	ecx, DWORD PTR _str$2676[esp+48]
	jge	SHORT $LN22@kprintf
	mov	BYTE PTR _str$2676[esp+48], 45		; 0000002dH
	lea	ecx, DWORD PTR _str$2676[esp+49]
	neg	eax
$LN22@kprintf:
	push	ecx
	push	10					; 0000000aH
	push	eax
	call	?itoa@@YAXIIPAD@Z			; itoa

; 164  : 						kputs (str);

	lea	eax, DWORD PTR _str$2676[esp+60]
	push	eax

; 165  : 						i++;		// go to next character
; 166  : 						break;

	jmp	SHORT $LN36@kprintf
$LN3@kprintf:

; 167  : 					}
; 168  : 
; 169  : 					/*** display in hex ***/
; 170  : 					case 'X':
; 171  : 					case 'x': {
; 172  : 						int c = va_arg (args, int);
; 173  : 						char str[32]={0};

	xor	eax, eax
	add	esi, 4
	mov	DWORD PTR _str$2686[esp+49], eax
	mov	DWORD PTR _str$2686[esp+53], eax
	mov	DWORD PTR _str$2686[esp+57], eax
	mov	DWORD PTR _str$2686[esp+61], eax
	mov	DWORD PTR _str$2686[esp+65], eax
	mov	DWORD PTR _str$2686[esp+69], eax
	mov	DWORD PTR _str$2686[esp+73], eax
	mov	WORD PTR _str$2686[esp+77], ax
	mov	BYTE PTR _str$2686[esp+79], al

; 174  : 						itoa_s (c,16,str);

	mov	eax, DWORD PTR [esi]
	cmp	eax, ebx
	mov	BYTE PTR _str$2686[esp+48], bl
	lea	ecx, DWORD PTR _str$2686[esp+48]
	jge	SHORT $LN26@kprintf
	mov	BYTE PTR _str$2686[esp+48], 45		; 0000002dH
	lea	ecx, DWORD PTR _str$2686[esp+49]
	neg	eax
$LN26@kprintf:
	push	ecx
	push	16					; 00000010H
	push	eax
	call	?itoa@@YAXIIPAD@Z			; itoa

; 175  : 						kputs (str);

	lea	ecx, DWORD PTR _str$2686[esp+60]
	push	ecx
$LN36@kprintf:
	call	?kputs@@YAXPAD@Z			; kputs
	add	esp, 16					; 00000010H
$LN35@kprintf:

; 176  : 						i++;		// go to next character

	add	edi, 1
$LN13@kprintf:

; 129  : 	
; 130  : 	size_t i=0;
; 131  : 
; 132  : 	for (; i<strlen(str);i++) {

	push	ebp
	add	edi, 1
	call	?strlen@@YAIPBD@Z			; strlen
	add	esp, 4
	cmp	edi, eax
	jb	$LL14@kprintf
$LN12@kprintf:

; 190  : 		}
; 191  : 
; 192  : 	}
; 193  : 
; 194  : 	va_end (args);
; 195  : 	return i;

	mov	eax, edi
	pop	edi
	pop	esi
	pop	ebp
	pop	ebx

; 196  : }

	add	esp, 32					; 00000020H
	ret	0
$LN2@kprintf:
	pop	edi
	pop	esi
	pop	ebp

; 177  : 						break;
; 178  : 					}
; 179  : 
; 180  : 					default:
; 181  : 						va_end (args);
; 182  : 						return 1;

	mov	eax, 1
	pop	ebx

; 196  : }

	add	esp, 32					; 00000020H
	ret	0
	npad	2
$LN37@kprintf:
	DD	$LN3@kprintf
	DD	$LN6@kprintf
	DD	$LN4@kprintf
	DD	$LN5@kprintf
	DD	$LN2@kprintf
$LN32@kprintf:
	DB	0
	DB	4
	DB	4
	DB	4
	DB	4
	DB	4
	DB	4
	DB	4
	DB	4
	DB	4
	DB	4
	DB	1
	DB	2
	DB	4
	DB	4
	DB	4
	DB	4
	DB	2
	DB	4
	DB	4
	DB	4
	DB	4
	DB	4
	DB	4
	DB	4
	DB	4
	DB	4
	DB	3
	DB	4
	DB	4
	DB	4
	DB	4
	DB	0
?kprintf@@YAHPBDZZ ENDP					; kprintf
_TEXT	ENDS
END
