; Listing generated by Microsoft (R) Optimizing Compiler Version 14.00.50727.42 

	TITLE	c:\Documents and Settings\SudaNix\Desktop\eqraOS\eqraOS-doc\examples\ch4\pmm\core\kernel\mem_info.cpp
	.686P
	.XMM
	include listing.inc
	.model	flat

INCLUDELIB LIBCMT
INCLUDELIB OLDNAMES

PUBLIC	?boot_info@@3PAUmultiboot_info@@A		; boot_info
PUBLIC	?mem_types@@3PAPADA				; mem_types
PUBLIC	?kernel_size@@3IA				; kernel_size
PUBLIC	?mem_size@@3IA					; mem_size
PUBLIC	?region_ptr@@3PAUmem_region@@A			; region_ptr
_BSS	SEGMENT
?boot_info@@3PAUmultiboot_info@@A DD 01H DUP (?)	; boot_info
?kernel_size@@3IA DD 01H DUP (?)			; kernel_size
?mem_size@@3IA DD 01H DUP (?)				; mem_size
_BSS	ENDS
_DATA	SEGMENT
?mem_types@@3PAPADA DD FLAT:$SG2630			; mem_types
	DD	FLAT:$SG2631
	DD	FLAT:$SG2632
	DD	FLAT:$SG2633
?region_ptr@@3PAUmem_region@@A DD 01000H		; region_ptr
_DATA	ENDS
CONST	SEGMENT
$SG2630	DB	'available', 00H
	ORG $+2
$SG2631	DB	'reserved', 00H
	ORG $+3
$SG2632	DB	'acpi reclaim', 00H
	ORG $+3
$SG2633	DB	'acpi nvs memory', 00H
$SG2653	DB	'Physical Memory Map', 0aH, 00H
	ORG $+3
$SG2654	DB	'region      base        size        type', 0aH, 00H
	ORG $+2
$SG2655	DB	'---------------------------------------------------', 0aH
	DB	0aH, 00H
	ORG $+2
$SG2661	DB	'%d            0x%x%x          0x%x%x        %s', 0aH, 00H
$SG2664	DB	'Physical memory size: %d KB', 0aH, 00H
	ORG $+3
$SG2665	DB	'memory low: %d    ;  memory high: %d ', 0aH, 0aH, 00H
	ORG $+4
$SG2668	DB	'Memory statistics: all blocks: %d  ; used blocks: %d  ; '
	DB	'free blocks: %d', 0aH, 00H
CONST	ENDS
PUBLIC	?mem_info_init_region@@YAXXZ			; mem_info_init_region
EXTRN	?pmm_init_region@@YAXII@Z:PROC			; pmm_init_region
; Function compile flags: /Ogtpy
; File c:\documents and settings\sudanix\desktop\eqraos\eqraos-doc\examples\ch4\pmm\core\kernel\mem_info.cpp
_TEXT	SEGMENT
?mem_info_init_region@@YAXXZ PROC			; mem_info_init_region

; 49   : 
; 50   : 	for (int i=0;i<15;++i) {

	mov	eax, DWORD PTR ?region_ptr@@3PAUmem_region@@A ; region_ptr
	push	ebx
	push	esi
	push	edi
	xor	edi, edi
	xor	esi, esi
	mov	ebx, 1
$LL12@mem_info_i:

; 51   : 		
; 52   : 		// if region is unefined make it reserved.
; 53   : 		if (region_ptr[i].type > 4) 

	cmp	DWORD PTR [esi+eax+16], 4
	jbe	SHORT $LN3@mem_info_i

; 54   : 			region_ptr[i].type = 1;

	mov	DWORD PTR [esi+eax+16], ebx
	mov	eax, DWORD PTR ?region_ptr@@3PAUmem_region@@A ; region_ptr
$LN3@mem_info_i:

; 55   : 			
; 56   : 		// if there is no more region break.
; 57   : 		if (i>0 && region_ptr[i].base_low == 0)

	test	edi, edi
	jle	SHORT $LN2@mem_info_i
	cmp	DWORD PTR [esi+eax], 0
	je	SHORT $LN10@mem_info_i
$LN2@mem_info_i:

; 58   : 			break;
; 59   : 			
; 60   : 		// init region if available
; 61   : 		if (region_ptr[i].type == 1)

	cmp	DWORD PTR [esi+eax+16], ebx
	jne	SHORT $LN5@mem_info_i

; 62   : 			pmm_init_region(region_ptr[i].base_low,region_ptr[i].length_low);

	mov	ecx, DWORD PTR [esi+eax+8]
	mov	edx, DWORD PTR [esi+eax]
	push	ecx
	push	edx
	call	?pmm_init_region@@YAXII@Z		; pmm_init_region
	mov	eax, DWORD PTR ?region_ptr@@3PAUmem_region@@A ; region_ptr
	add	esp, 8
$LN5@mem_info_i:
	add	esi, 24					; 00000018H
	add	edi, ebx
	cmp	esi, 360				; 00000168H
	jl	SHORT $LL12@mem_info_i
$LN10@mem_info_i:
	pop	edi
	pop	esi
	pop	ebx

; 63   : 	}
; 64   : }

	ret	0
?mem_info_init_region@@YAXXZ ENDP			; mem_info_init_region
_TEXT	ENDS
PUBLIC	?mem_info_dump_region@@YAXXZ			; mem_info_dump_region
EXTRN	?kprintf@@YAHPBDZZ:PROC				; kprintf
EXTRN	?kputs@@YAXPAD@Z:PROC				; kputs
EXTRN	?kset_color@@YAII@Z:PROC			; kset_color
; Function compile flags: /Ogtpy
_TEXT	SEGMENT
?mem_info_dump_region@@YAXXZ PROC			; mem_info_dump_region

; 66   : void mem_info_dump_region() {

	push	esi
	push	edi

; 67   : 	kset_color(0x19);

	push	25					; 00000019H
	call	?kset_color@@YAII@Z			; kset_color

; 68   : 	kputs("Physical Memory Map\n");

	push	OFFSET $SG2653
	call	?kputs@@YAXPAD@Z			; kputs

; 69   : 	kputs("region      base        size        type\n");

	push	OFFSET $SG2654
	call	?kputs@@YAXPAD@Z			; kputs

; 70   : 	kputs("---------------------------------------------------\n\n");

	push	OFFSET $SG2655
	call	?kputs@@YAXPAD@Z			; kputs
	add	esp, 16					; 00000010H

; 71   : 	
; 72   : 	for (int i=0;i<15;++i) {

	xor	edi, edi
	xor	esi, esi
	npad	2
$LL4@mem_info_d:

; 73   : 	
; 74   : 		// if there is no more region break.
; 75   : 		if (i>0 && region_ptr[i].base_low == 0)

	test	edi, edi
	mov	eax, DWORD PTR ?region_ptr@@3PAUmem_region@@A ; region_ptr
	jle	SHORT $LN1@mem_info_d
	cmp	DWORD PTR [esi+eax], 0
	je	SHORT $LN8@mem_info_d
$LN1@mem_info_d:

; 76   : 			break;
; 77   : 			
; 78   : 		// dump entry.
; 79   : 		kprintf("%d            0x%x%x          0x%x%x        %s\n",
; 80   : 			i,
; 81   : 			region_ptr[i].base_high,region_ptr[i].base_low,
; 82   : 			region_ptr[i].length_high,region_ptr[i].length_low,
; 83   : 			mem_types[region_ptr[i].type-1]
; 84   : 			);

	mov	ecx, DWORD PTR [esi+eax+16]
	mov	edx, DWORD PTR ?mem_types@@3PAPADA[ecx*4-4]
	mov	ecx, DWORD PTR [esi+eax+8]
	push	edx
	mov	edx, DWORD PTR [esi+eax+12]
	push	ecx
	mov	ecx, DWORD PTR [esi+eax]
	push	edx
	mov	edx, DWORD PTR [esi+eax+4]
	push	ecx
	push	edx
	push	edi
	push	OFFSET $SG2661
	call	?kprintf@@YAHPBDZZ			; kprintf
	add	esi, 24					; 00000018H
	add	esp, 28					; 0000001cH
	add	edi, 1
	cmp	esi, 360				; 00000168H
	jl	SHORT $LL4@mem_info_d
$LN8@mem_info_d:
	pop	edi
	pop	esi

; 85   : 	}
; 86   : }

	ret	0
?mem_info_dump_region@@YAXXZ ENDP			; mem_info_dump_region
_TEXT	ENDS
PUBLIC	?mem_info_dump_size@@YAXXZ			; mem_info_dump_size
; Function compile flags: /Ogtpy
_TEXT	SEGMENT
?mem_info_dump_size@@YAXXZ PROC				; mem_info_dump_size

; 89   : 	kprintf("Physical memory size: %d KB\n",mem_size);

	mov	eax, DWORD PTR ?mem_size@@3IA		; mem_size
	push	eax
	push	OFFSET $SG2664
	call	?kprintf@@YAHPBDZZ			; kprintf

; 90   : 	kprintf("memory low: %d    ;  memory high: %d \n\n",boot_info->m_mem_low,boot_info->m_mem_high);

	mov	eax, DWORD PTR ?boot_info@@3PAUmultiboot_info@@A ; boot_info
	mov	ecx, DWORD PTR [eax+8]
	mov	edx, DWORD PTR [eax+4]
	push	ecx
	push	edx
	push	OFFSET $SG2665
	call	?kprintf@@YAHPBDZZ			; kprintf
	add	esp, 20					; 00000014H

; 91   : }

	ret	0
?mem_info_dump_size@@YAXXZ ENDP				; mem_info_dump_size
_TEXT	ENDS
PUBLIC	?mem_info_blocks_stat@@YAXXZ			; mem_info_blocks_stat
EXTRN	?pmm_get_block_count@@YAIXZ:PROC		; pmm_get_block_count
EXTRN	?pmm_get_used_block_count@@YAIXZ:PROC		; pmm_get_used_block_count
EXTRN	?pmm_get_free_block_count@@YAIXZ:PROC		; pmm_get_free_block_count
; Function compile flags: /Ogtpy
_TEXT	SEGMENT
?mem_info_blocks_stat@@YAXXZ PROC			; mem_info_blocks_stat

; 94   : 	kset_color(GRAY_ON_BLUE);

	push	23					; 00000017H
	call	?kset_color@@YAII@Z			; kset_color
	add	esp, 4

; 95   : 	
; 96   : 	kprintf("Memory statistics: all blocks: %d  ; used blocks: %d  ; free blocks: %d\n",
; 97   : 		pmm_get_block_count(),
; 98   : 		pmm_get_used_block_count(),
; 99   : 		pmm_get_free_block_count()
; 100  : 		);

	call	?pmm_get_free_block_count@@YAIXZ	; pmm_get_free_block_count
	push	eax
	call	?pmm_get_used_block_count@@YAIXZ	; pmm_get_used_block_count
	push	eax
	call	?pmm_get_block_count@@YAIXZ		; pmm_get_block_count
	push	eax
	push	OFFSET $SG2668
	call	?kprintf@@YAHPBDZZ			; kprintf
	add	esp, 16					; 00000010H

; 101  : }

	ret	0
?mem_info_blocks_stat@@YAXXZ ENDP			; mem_info_blocks_stat
_TEXT	ENDS
PUBLIC	?mem_info_init@@YAXPAUmultiboot_info@@@Z	; mem_info_init
EXTRN	?pmm_deinit_region@@YAXII@Z:PROC		; pmm_deinit_region
EXTRN	?pmm_init@@YAXII@Z:PROC				; pmm_init
; Function compile flags: /Ogtpy
_TEXT	SEGMENT
_info$ = 8						; size = 4
?mem_info_init@@YAXPAUmultiboot_info@@@Z PROC		; mem_info_init

; 27   : 
; 28   : 	// Multiboot informtion.
; 29   : 	boot_info = info;

	mov	eax, DWORD PTR _info$[esp-4]
	mov	DWORD PTR ?boot_info@@3PAUmultiboot_info@@A, eax ; boot_info

; 30   : 
; 31   : 	// kernel size
; 32   : 	_asm mov word ptr [kernel_size],dx

	mov	WORD PTR ?kernel_size@@3IA, dx

; 33   : 	
; 34   : 	// Memory size in KB
; 35   : 	mem_size = 1024 + boot_info->m_mem_low + boot_info->m_mem_high * 64;

	mov	ecx, DWORD PTR ?boot_info@@3PAUmultiboot_info@@A ; boot_info
	mov	eax, DWORD PTR [ecx+8]
	add	eax, 16					; 00000010H
	shl	eax, 6
	add	eax, DWORD PTR [ecx+4]

; 36   : 
; 37   : 	// Init pmm, put memory map bit above the kernel.
; 38   : 	pmm_init(mem_size,KERNEL_BASE + kernel_size*512);

	mov	ecx, DWORD PTR ?kernel_size@@3IA	; kernel_size
	add	ecx, 2048				; 00000800H
	shl	ecx, 9
	push	ecx
	push	eax
	mov	DWORD PTR ?mem_size@@3IA, eax		; mem_size
	call	?pmm_init@@YAXII@Z			; pmm_init

; 39   : 
; 40   : 	// Unset all non-reserved regions.
; 41   : 	mem_info_init_region();

	call	?mem_info_init_region@@YAXXZ		; mem_info_init_region

; 42   : 
; 43   : 	// kernel region is reserved (set).
; 44   : 	pmm_deinit_region(KERNEL_BASE,kernel_size*512);

	mov	edx, DWORD PTR ?kernel_size@@3IA	; kernel_size
	shl	edx, 9
	push	edx
	push	1048576					; 00100000H
	call	?pmm_deinit_region@@YAXII@Z		; pmm_deinit_region
	add	esp, 16					; 00000010H

; 45   : }

	ret	0
?mem_info_init@@YAXPAUmultiboot_info@@@Z ENDP		; mem_info_init
_TEXT	ENDS
END
