; Listing generated by Microsoft (R) Optimizing Compiler Version 14.00.50727.42 

	TITLE	c:\Documents and Settings\SudaNix\Desktop\eqraOS\eqraOS-doc\examples\ch4\vmm\core\kernel\kdisplay.cpp
	.686P
	.XMM
	include listing.inc
	.model	flat

INCLUDELIB LIBCMT
INCLUDELIB OLDNAMES

PUBLIC	?tbuf@@3PADA					; tbuf
PUBLIC	?video_memory@@3PAGA				; video_memory
PUBLIC	?_x_pos@@3EA					; _x_pos
PUBLIC	?_y_pos@@3EA					; _y_pos
PUBLIC	?_color@@3EA					; _color
PUBLIC	?bchars@@3PADA					; bchars
_BSS	SEGMENT
?tbuf@@3PADA DB	020H DUP (?)				; tbuf
?_x_pos@@3EA DB	01H DUP (?)				; _x_pos
	ALIGN	4

?_y_pos@@3EA DB	01H DUP (?)				; _y_pos
	ALIGN	4

?_color@@3EA DB	01H DUP (?)				; _color
_BSS	ENDS
_DATA	SEGMENT
?video_memory@@3PAGA DD 0b8000H				; video_memory
?bchars@@3PADA DB 030H					; bchars
	DB	031H
	DB	032H
	DB	033H
	DB	034H
	DB	035H
	DB	036H
	DB	037H
	DB	038H
	DB	039H
	DB	041H
	DB	042H
	DB	043H
	DB	044H
	DB	045H
	DB	046H
_DATA	ENDS
PUBLIC	?k_update_cursor@@YAXHH@Z			; k_update_cursor
; Function compile flags: /Ogtpy
; File c:\documents and settings\sudanix\desktop\eqraos\eqraos-doc\examples\ch4\vmm\core\kernel\kdisplay.cpp
_TEXT	SEGMENT
_x$ = 8							; size = 4
_y$ = 12						; size = 4
?k_update_cursor@@YAXHH@Z PROC				; k_update_cursor

; 21   : 
; 22   :     // get location
; 23   :     uint16_t cursorLocation = y * 80 + x;
; 24   : 
; 25   : #if 0
; 26   : 	// send location to vga controller to set cursor
; 27   : 	disable();
; 28   :     outportb(0x3D4, 14);
; 29   :     outportb(0x3D5, cursorLocation >> 8); // Send the high byte.
; 30   :     outportb(0x3D4, 15);
; 31   :     outportb(0x3D5, cursorLocation);      // Send the low byte.
; 32   : 	enable();
; 33   : #endif
; 34   : 
; 35   : }

	ret	0
?k_update_cursor@@YAXHH@Z ENDP				; k_update_cursor
_TEXT	ENDS
PUBLIC	?kputc@@YAXE@Z					; kputc
; Function compile flags: /Ogtpy
_TEXT	SEGMENT
_c$ = 8							; size = 1
?kputc@@YAXE@Z PROC					; kputc

; 39   :     uint16_t attribute = _color << 8;

	xor	eax, eax
	mov	ah, BYTE PTR ?_color@@3EA		; _color
	movzx	ecx, ax

; 40   : 
; 41   :     //! backspace character
; 42   :     if (c == 0x08 && _x_pos)

	mov	al, BYTE PTR _c$[esp-4]
	cmp	al, 8
	jne	SHORT $LN10@kputc
	mov	al, BYTE PTR ?_x_pos@@3EA		; _x_pos
	test	al, al
	je	SHORT $LN2@kputc

; 43   :         _x_pos--;

	add	al, 255					; 000000ffH
	mov	BYTE PTR ?_x_pos@@3EA, al		; _x_pos
	jmp	SHORT $LN2@kputc
$LN10@kputc:

; 44   : 
; 45   :     //! tab character
; 46   :     else if (c == 0x09)

	cmp	al, 9
	jne	SHORT $LN8@kputc

; 47   :         _x_pos = (_x_pos+8) & ~(8-1);

	mov	al, BYTE PTR ?_x_pos@@3EA		; _x_pos
	add	al, 8
	and	al, 248					; 000000f8H
	mov	BYTE PTR ?_x_pos@@3EA, al		; _x_pos
	jmp	SHORT $LN2@kputc
$LN8@kputc:

; 48   : 
; 49   :     //! carriage return
; 50   :     else if (c == '\r')

	cmp	al, 13					; 0000000dH

; 51   :         _x_pos = 0;

	je	SHORT $LN16@kputc

; 52   : 
; 53   :     //! new line
; 54   : 	else if (c == '\n') {

	cmp	al, 10					; 0000000aH

; 55   :         _x_pos = 0;
; 56   :         _y_pos++;

	je	SHORT $LN17@kputc

; 57   : 	}
; 58   : 
; 59   :     //! printable characters
; 60   :     else if(c >= ' ') {

	cmp	al, 32					; 00000020H
	jb	SHORT $LN15@kputc

; 61   : 
; 62   : 		//! display character on screen
; 63   :         uint16_t* location = video_memory + (_y_pos*80 + _x_pos);
; 64   :         *location = c | attribute;

	movzx	dx, al
	movzx	eax, BYTE PTR ?_y_pos@@3EA		; _y_pos
	or	dx, cx
	movzx	ecx, BYTE PTR ?_x_pos@@3EA		; _x_pos
	lea	eax, DWORD PTR [eax+eax*4]
	shl	eax, 4
	add	eax, ecx
	mov	ecx, DWORD PTR ?video_memory@@3PAGA	; video_memory
	mov	WORD PTR [ecx+eax*2], dx

; 65   :         _x_pos++;

	mov	al, BYTE PTR ?_x_pos@@3EA		; _x_pos
	add	al, 1
	mov	BYTE PTR ?_x_pos@@3EA, al		; _x_pos
	jmp	SHORT $LN2@kputc
$LN15@kputc:
	mov	al, BYTE PTR ?_x_pos@@3EA		; _x_pos
$LN2@kputc:

; 66   :     }
; 67   : 
; 68   :     //! if we are at edge of row, go to new line
; 69   :     if (_x_pos >= 80) {

	cmp	al, 80					; 00000050H
	jb	SHORT $LN1@kputc
$LN17@kputc:

; 72   :         _y_pos++;

	add	BYTE PTR ?_y_pos@@3EA, 1		; _y_pos
$LN16@kputc:

; 70   : 
; 71   :         _x_pos = 0;

	mov	BYTE PTR ?_x_pos@@3EA, 0		; _x_pos
$LN1@kputc:

; 73   :     }
; 74   : 
; 75   :     //! update hardware cursor
; 76   : 	k_update_cursor (_x_pos,_y_pos);
; 77   : }

	ret	0
?kputc@@YAXE@Z ENDP					; kputc
_TEXT	ENDS
PUBLIC	?itoa@@YAXIIPAD@Z				; itoa
; Function compile flags: /Ogtpy
_TEXT	SEGMENT
_i$ = 8							; size = 4
_base$ = 12						; size = 4
_buf$ = 16						; size = 4
?itoa@@YAXIIPAD@Z PROC					; itoa

; 85   :    int pos = 0;
; 86   :    int opos = 0;
; 87   :    int top = 0;
; 88   : 
; 89   :    if (i == 0 || base > 16) {

	mov	eax, DWORD PTR _i$[esp-4]
	xor	ecx, ecx
	test	eax, eax
	push	esi
	je	SHORT $LN6@itoa
	mov	esi, DWORD PTR _base$[esp]
	cmp	esi, 16					; 00000010H
	ja	SHORT $LN6@itoa
$LL5@itoa:

; 92   :       return;
; 93   :    }
; 94   : 
; 95   :    while (i != 0) {
; 96   :       tbuf[pos] = bchars[i % base];

	xor	edx, edx
	div	esi

; 97   :       pos++;

	add	ecx, 1
	test	eax, eax
	mov	dl, BYTE PTR ?bchars@@3PADA[edx]
	mov	BYTE PTR ?tbuf@@3PADA[ecx-1], dl
	jne	SHORT $LL5@itoa

; 98   :       i /= base;
; 99   :    }
; 100  :    top=pos--;

	mov	esi, ecx
	sub	ecx, 1

; 101  :    for (opos=0; opos<top; pos--,opos++) {

	test	esi, esi
	push	edi
	mov	edi, DWORD PTR _buf$[esp+4]
	jle	SHORT $LN1@itoa

; 98   :       i /= base;
; 99   :    }
; 100  :    top=pos--;

	lea	ecx, DWORD PTR ?tbuf@@3PADA[ecx]
	npad	1
$LL3@itoa:

; 102  :       buf[opos] = tbuf[pos];

	mov	dl, BYTE PTR [ecx]
	mov	BYTE PTR [eax+edi], dl
	add	eax, 1
	sub	ecx, 1
	cmp	eax, esi
	jl	SHORT $LL3@itoa
$LN1@itoa:

; 103  :    }
; 104  :    buf[opos] = 0;

	mov	BYTE PTR [eax+edi], 0
	pop	edi
	pop	esi

; 105  : }

	ret	0
$LN6@itoa:

; 90   :       buf[0] = '0';

	mov	eax, DWORD PTR _buf$[esp]
	mov	BYTE PTR [eax], 48			; 00000030H

; 91   :       buf[1] = '\0';

	mov	BYTE PTR [eax+1], cl
	pop	esi

; 105  : }

	ret	0
?itoa@@YAXIIPAD@Z ENDP					; itoa
_TEXT	ENDS
PUBLIC	?itoa_s@@YAXHIPAD@Z				; itoa_s
; Function compile flags: /Ogtpy
_TEXT	SEGMENT
_i$ = 8							; size = 4
_base$ = 12						; size = 4
_buf$ = 16						; size = 4
?itoa_s@@YAXHIPAD@Z PROC				; itoa_s

; 108  :    if (base > 16) return;

	mov	edx, DWORD PTR _base$[esp-4]
	cmp	edx, 16					; 00000010H
	ja	SHORT $LN3@itoa_s

; 109  :    if (i < 0) {

	mov	eax, DWORD PTR _i$[esp-4]
	test	eax, eax

; 110  :       *buf++ = '-';

	mov	ecx, DWORD PTR _buf$[esp-4]
	jge	SHORT $LN1@itoa_s
	mov	BYTE PTR [ecx], 45			; 0000002dH
	add	ecx, 1

; 111  :       i *= -1;

	neg	eax
$LN1@itoa_s:

; 112  :    }
; 113  :    itoa(i,base,buf);

	mov	DWORD PTR _buf$[esp-4], ecx
	mov	DWORD PTR _base$[esp-4], edx
	mov	DWORD PTR _i$[esp-4], eax
	jmp	?itoa@@YAXIIPAD@Z			; itoa
$LN3@itoa_s:

; 114  : }

	ret	0
?itoa_s@@YAXHIPAD@Z ENDP				; itoa_s
_TEXT	ENDS
PUBLIC	?kputs@@YAXPAD@Z				; kputs
EXTRN	?strlen@@YAIPBD@Z:PROC				; strlen
; Function compile flags: /Ogtpy
_TEXT	SEGMENT
_str$ = 8						; size = 4
?kputs@@YAXPAD@Z PROC					; kputs

; 132  : {

	push	edi

; 133  : 	if (!str)

	mov	edi, DWORD PTR _str$[esp]
	test	edi, edi
	je	SHORT $LN1@kputs
	push	esi

; 134  : 		return;
; 135  : 		
; 136  : 	for (size_t i=0;i<strlen(str);++i)

	push	edi
	xor	esi, esi
	call	?strlen@@YAIPBD@Z			; strlen
	add	esp, 4
	test	eax, eax
	jbe	SHORT $LN9@kputs
	npad	7
$LL3@kputs:

; 137  : 		kputc(str[i]);

	movzx	eax, BYTE PTR [esi+edi]
	push	eax
	call	?kputc@@YAXE@Z				; kputc
	push	edi
	add	esi, 1
	call	?strlen@@YAIPBD@Z			; strlen
	add	esp, 8
	cmp	esi, eax
	jb	SHORT $LL3@kputs
$LN9@kputs:
	pop	esi
$LN1@kputs:
	pop	edi

; 138  : }

	ret	0
?kputs@@YAXPAD@Z ENDP					; kputs
_TEXT	ENDS
PUBLIC	?kset_color@@YAII@Z				; kset_color
; Function compile flags: /Ogtpy
_TEXT	SEGMENT
_c$ = 8							; size = 4
?kset_color@@YAII@Z PROC				; kset_color

; 143  : 	unsigned old_color = _color;
; 144  : 	_color = c;

	mov	cl, BYTE PTR _c$[esp-4]
	movzx	eax, BYTE PTR ?_color@@3EA		; _color
	mov	BYTE PTR ?_color@@3EA, cl		; _color

; 145  : 	return old_color;
; 146  : }

	ret	0
?kset_color@@YAII@Z ENDP				; kset_color
_TEXT	ENDS
PUBLIC	?kgoto_xy@@YAXII@Z				; kgoto_xy
; Function compile flags: /Ogtpy
_TEXT	SEGMENT
_x$ = 8							; size = 4
_y$ = 12						; size = 4
?kgoto_xy@@YAXII@Z PROC					; kgoto_xy

; 150  : 	if (_x_pos <= 80)

	cmp	BYTE PTR ?_x_pos@@3EA, 80		; _x_pos, 00000050H
	ja	SHORT $LN2@kgoto_xy

; 151  : 	    _x_pos = x;

	mov	al, BYTE PTR _x$[esp-4]
	mov	BYTE PTR ?_x_pos@@3EA, al		; _x_pos
$LN2@kgoto_xy:

; 152  : 
; 153  : 	if (_y_pos <= 25)

	cmp	BYTE PTR ?_y_pos@@3EA, 25		; _y_pos, 00000019H
	ja	SHORT $LN1@kgoto_xy

; 154  : 	    _y_pos = y;

	mov	cl, BYTE PTR _y$[esp-4]
	mov	BYTE PTR ?_y_pos@@3EA, cl		; _y_pos
$LN1@kgoto_xy:

; 155  : 
; 156  : 	//! update hardware cursor to new position
; 157  : 	k_update_cursor(_x_pos, _y_pos);
; 158  : }

	ret	0
?kgoto_xy@@YAXII@Z ENDP					; kgoto_xy
_TEXT	ENDS
PUBLIC	?kprintf@@YAHPBDZZ				; kprintf
EXTRN	?strcpy@@YAPADPADPBD@Z:PROC			; strcpy
; Function compile flags: /Ogtpy
_TEXT	SEGMENT
_str$2709 = -64						; size = 32
_str$2699 = -64						; size = 32
_str$2688 = -64						; size = 64
_str$ = 8						; size = 4
?kprintf@@YAHPBDZZ PROC					; kprintf

; 161  : int kprintf(const char* str, ...) {

	sub	esp, 64					; 00000040H
	push	ebx
	push	ebp

; 162  : 
; 163  : 	if(!str)

	mov	ebp, DWORD PTR _str$[esp+68]
	xor	ebx, ebx
	cmp	ebp, ebx
	jne	SHORT $LN15@kprintf
	pop	ebp

; 164  : 		return 0;

	xor	eax, eax
	pop	ebx

; 235  : }

	add	esp, 64					; 00000040H
	ret	0
$LN15@kprintf:
	push	esi
	push	edi

; 168  : 	
; 169  : 	size_t i=0;
; 170  : 
; 171  : 	for (; i<strlen(str);i++) {

	push	ebp
	xor	edi, edi
	call	?strlen@@YAIPBD@Z			; strlen
	add	esp, 4
	test	eax, eax
	jbe	$LN12@kprintf

; 165  : 
; 166  : 	va_list		args;
; 167  : 	va_start (args, str);

	lea	esi, DWORD PTR _str$[esp+76]
$LL14@kprintf:

; 172  : 
; 173  : 		switch (str[i]) {

	movzx	eax, BYTE PTR [edi+ebp]
	cmp	al, 37					; 00000025H
	je	SHORT $LN9@kprintf

; 222  : 				}
; 223  : 
; 224  : 				break;
; 225  : 
; 226  : 			default:
; 227  : 				kputc (str[i]);

	push	eax
	call	?kputc@@YAXE@Z				; kputc
	add	esp, 4

; 228  : 				break;

	jmp	$LN13@kprintf
$LN9@kprintf:

; 174  : 
; 175  : 			case '%':
; 176  : 
; 177  : 				switch (str[i+1]) {

	movsx	eax, BYTE PTR [edi+ebp+1]
	add	eax, -88				; ffffffa8H
	cmp	eax, 32					; 00000020H
	ja	$LN2@kprintf
	movzx	eax, BYTE PTR $LN28@kprintf[eax]
	jmp	DWORD PTR $LN33@kprintf[eax*4]
$LN6@kprintf:

; 178  : 
; 179  : 					/*** characters ***/
; 180  : 					case 'c': {
; 181  : 						char c = va_arg (args, char);
; 182  : 						kputc (c);

	movzx	ecx, BYTE PTR [esi+4]
	add	esi, 4
	push	ecx
	call	?kputc@@YAXE@Z				; kputc
	add	esp, 4

; 183  : 						i++;		// go to next character
; 184  : 						break;

	jmp	$LN31@kprintf
$LN5@kprintf:

; 185  : 					}
; 186  : 
; 187  : 					/*** address of ***/
; 188  : 					case 's': {
; 189  : 						int c = (int&) va_arg (args, char);
; 190  : 						char str[64];
; 191  : 						strcpy (str,(const char*)c);

	mov	edx, DWORD PTR [esi+4]
	add	esi, 4
	push	edx
	lea	eax, DWORD PTR _str$2688[esp+84]
	push	eax
	call	?strcpy@@YAPADPADPBD@Z			; strcpy

; 192  : 						kputs (str);

	lea	ecx, DWORD PTR _str$2688[esp+88]
	push	ecx
	call	?kputs@@YAXPAD@Z			; kputs
	add	esp, 12					; 0000000cH

; 193  : 						i++;		// go to next character
; 194  : 						break;

	jmp	$LN31@kprintf
$LN4@kprintf:

; 195  : 					}
; 196  : 
; 197  : 					/*** integers ***/
; 198  : 					case 'd':
; 199  : 					case 'i': {
; 200  : 						int c = va_arg (args, int);
; 201  : 						char str[32]={0};

	xor	eax, eax
	add	esi, 4
	mov	DWORD PTR _str$2699[esp+81], eax
	mov	DWORD PTR _str$2699[esp+85], eax
	mov	DWORD PTR _str$2699[esp+89], eax
	mov	DWORD PTR _str$2699[esp+93], eax
	mov	DWORD PTR _str$2699[esp+97], eax
	mov	DWORD PTR _str$2699[esp+101], eax
	mov	DWORD PTR _str$2699[esp+105], eax
	mov	WORD PTR _str$2699[esp+109], ax
	mov	BYTE PTR _str$2699[esp+111], al

; 202  : 						itoa_s (c, 10, str);

	mov	eax, DWORD PTR [esi]
	cmp	eax, ebx
	mov	BYTE PTR _str$2699[esp+80], bl
	lea	ecx, DWORD PTR _str$2699[esp+80]
	jge	SHORT $LN18@kprintf
	mov	BYTE PTR _str$2699[esp+80], 45		; 0000002dH
	lea	ecx, DWORD PTR _str$2699[esp+81]
	neg	eax
$LN18@kprintf:
	push	ecx
	push	10					; 0000000aH
	push	eax
	call	?itoa@@YAXIIPAD@Z			; itoa

; 203  : 						kputs (str);

	lea	edx, DWORD PTR _str$2699[esp+92]
	push	edx

; 204  : 						i++;		// go to next character
; 205  : 						break;

	jmp	SHORT $LN32@kprintf
$LN3@kprintf:

; 206  : 					}
; 207  : 
; 208  : 					/*** display in hex ***/
; 209  : 					case 'X':
; 210  : 					case 'x': {
; 211  : 						int c = va_arg (args, int);
; 212  : 						char str[32]={0};

	xor	eax, eax
	add	esi, 4
	mov	DWORD PTR _str$2709[esp+81], eax
	mov	DWORD PTR _str$2709[esp+85], eax
	mov	DWORD PTR _str$2709[esp+89], eax
	mov	DWORD PTR _str$2709[esp+93], eax
	mov	DWORD PTR _str$2709[esp+97], eax
	mov	DWORD PTR _str$2709[esp+101], eax
	mov	DWORD PTR _str$2709[esp+105], eax
	mov	WORD PTR _str$2709[esp+109], ax
	mov	BYTE PTR _str$2709[esp+111], al

; 213  : 						itoa_s (c,16,str);

	mov	eax, DWORD PTR [esi]
	cmp	eax, ebx
	mov	BYTE PTR _str$2709[esp+80], bl
	lea	ecx, DWORD PTR _str$2709[esp+80]
	jge	SHORT $LN22@kprintf
	mov	BYTE PTR _str$2709[esp+80], 45		; 0000002dH
	lea	ecx, DWORD PTR _str$2709[esp+81]
	neg	eax
$LN22@kprintf:
	push	ecx
	push	16					; 00000010H
	push	eax
	call	?itoa@@YAXIIPAD@Z			; itoa

; 214  : 						kputs (str);

	lea	eax, DWORD PTR _str$2709[esp+92]
	push	eax
$LN32@kprintf:
	call	?kputs@@YAXPAD@Z			; kputs
	add	esp, 16					; 00000010H
$LN31@kprintf:

; 215  : 						i++;		// go to next character

	add	edi, 1
$LN13@kprintf:

; 168  : 	
; 169  : 	size_t i=0;
; 170  : 
; 171  : 	for (; i<strlen(str);i++) {

	push	ebp
	add	edi, 1
	call	?strlen@@YAIPBD@Z			; strlen
	add	esp, 4
	cmp	edi, eax
	jb	$LL14@kprintf
$LN12@kprintf:

; 229  : 		}
; 230  : 
; 231  : 	}
; 232  : 
; 233  : 	va_end (args);
; 234  : 	return i;

	mov	eax, edi
	pop	edi
	pop	esi
	pop	ebp
	pop	ebx

; 235  : }

	add	esp, 64					; 00000040H
	ret	0
$LN2@kprintf:
	pop	edi
	pop	esi
	pop	ebp

; 216  : 						break;
; 217  : 					}
; 218  : 
; 219  : 					default:
; 220  : 						va_end (args);
; 221  : 						return 1;

	mov	eax, 1
	pop	ebx

; 235  : }

	add	esp, 64					; 00000040H
	ret	0
	npad	1
$LN33@kprintf:
	DD	$LN3@kprintf
	DD	$LN6@kprintf
	DD	$LN4@kprintf
	DD	$LN5@kprintf
	DD	$LN2@kprintf
$LN28@kprintf:
	DB	0
	DB	4
	DB	4
	DB	4
	DB	4
	DB	4
	DB	4
	DB	4
	DB	4
	DB	4
	DB	4
	DB	1
	DB	2
	DB	4
	DB	4
	DB	4
	DB	4
	DB	2
	DB	4
	DB	4
	DB	4
	DB	4
	DB	4
	DB	4
	DB	4
	DB	4
	DB	4
	DB	3
	DB	4
	DB	4
	DB	4
	DB	4
	DB	0
?kprintf@@YAHPBDZZ ENDP					; kprintf
_TEXT	ENDS
PUBLIC	?kclear@@YAXE@Z					; kclear
; Function compile flags: /Ogtpy
_TEXT	SEGMENT
_c$ = 8							; size = 1
?kclear@@YAXE@Z PROC					; kclear

; 122  : 	//! clear video memory by writing space characters to it
; 123  : 	for (int i = 0; i < 80*25; i++)

	xor	ecx, ecx
	mov	ch, BYTE PTR _c$[esp-4]
	xor	edx, edx
	push	esi
	or	ecx, 32					; 00000020H
	xor	eax, eax
	npad	2
$LL3@kclear:

; 124  :         video_memory[i] = ' ' | (c << 8);

	mov	esi, DWORD PTR ?video_memory@@3PAGA	; video_memory
	mov	WORD PTR [eax+esi], cx
	add	eax, 2
	cmp	eax, 4000				; 00000fa0H
	jl	SHORT $LL3@kclear

; 125  : 
; 126  :     //! move position back to start
; 127  :     kgoto_xy (0,0);

	cmp	BYTE PTR ?_x_pos@@3EA, 80		; _x_pos, 00000050H
	pop	esi
	ja	SHORT $LN7@kclear
	mov	BYTE PTR ?_x_pos@@3EA, dl		; _x_pos
$LN7@kclear:
	cmp	BYTE PTR ?_y_pos@@3EA, 25		; _y_pos, 00000019H
	ja	SHORT $LN6@kclear
	mov	BYTE PTR ?_y_pos@@3EA, dl		; _y_pos
$LN6@kclear:

; 128  : }

	ret	0
?kclear@@YAXE@Z ENDP					; kclear
_TEXT	ENDS
END
